
generated/rv32ui-blt:     file format elf32-littleriscv


Disassembly of section .text.init:

00000000 <_start>:
   0:	00000093          	li	ra,0
   4:	00000113          	li	sp,0
   8:	00000193          	li	gp,0
   c:	00000213          	li	tp,0
  10:	00000293          	li	t0,0
  14:	00000313          	li	t1,0
  18:	00000393          	li	t2,0
  1c:	00000413          	li	s0,0
  20:	00000493          	li	s1,0
  24:	00000513          	li	a0,0
  28:	00000593          	li	a1,0
  2c:	00000613          	li	a2,0
  30:	00000693          	li	a3,0
  34:	00000713          	li	a4,0
  38:	00000793          	li	a5,0
  3c:	00000813          	li	a6,0
  40:	00000893          	li	a7,0
  44:	00000913          	li	s2,0
  48:	00000993          	li	s3,0
  4c:	00000a13          	li	s4,0
  50:	00000a93          	li	s5,0
  54:	00000b13          	li	s6,0
  58:	00000b93          	li	s7,0
  5c:	00000c13          	li	s8,0
  60:	00000c93          	li	s9,0
  64:	00000d13          	li	s10,0
  68:	00000d93          	li	s11,0
  6c:	00000e13          	li	t3,0
  70:	00000e93          	li	t4,0
  74:	00000f13          	li	t5,0
  78:	00000f93          	li	t6,0

0000007c <test_2>:
  7c:	00200193          	li	gp,2
  80:	00000093          	li	ra,0
  84:	00100113          	li	sp,1
  88:	0020c663          	blt	ra,sp,94 <test_2+0x18>
  8c:	2a301863          	bne	zero,gp,33c <fail>
  90:	00301663          	bne	zero,gp,9c <test_3>
  94:	fe20cee3          	blt	ra,sp,90 <test_2+0x14>
  98:	2a301263          	bne	zero,gp,33c <fail>

0000009c <test_3>:
  9c:	00300193          	li	gp,3
  a0:	fff00093          	li	ra,-1
  a4:	00100113          	li	sp,1
  a8:	0020c663          	blt	ra,sp,b4 <test_3+0x18>
  ac:	28301863          	bne	zero,gp,33c <fail>
  b0:	00301663          	bne	zero,gp,bc <test_4>
  b4:	fe20cee3          	blt	ra,sp,b0 <test_3+0x14>
  b8:	28301263          	bne	zero,gp,33c <fail>

000000bc <test_4>:
  bc:	00400193          	li	gp,4
  c0:	ffe00093          	li	ra,-2
  c4:	fff00113          	li	sp,-1
  c8:	0020c663          	blt	ra,sp,d4 <test_4+0x18>
  cc:	26301863          	bne	zero,gp,33c <fail>
  d0:	00301663          	bne	zero,gp,dc <test_5>
  d4:	fe20cee3          	blt	ra,sp,d0 <test_4+0x14>
  d8:	26301263          	bne	zero,gp,33c <fail>

000000dc <test_5>:
  dc:	00500193          	li	gp,5
  e0:	00100093          	li	ra,1
  e4:	00000113          	li	sp,0
  e8:	0020c463          	blt	ra,sp,f0 <test_5+0x14>
  ec:	00301463          	bne	zero,gp,f4 <test_5+0x18>
  f0:	24301663          	bne	zero,gp,33c <fail>
  f4:	fe20cee3          	blt	ra,sp,f0 <test_5+0x14>

000000f8 <test_6>:
  f8:	00600193          	li	gp,6
  fc:	00100093          	li	ra,1
 100:	fff00113          	li	sp,-1
 104:	0020c463          	blt	ra,sp,10c <test_6+0x14>
 108:	00301463          	bne	zero,gp,110 <test_6+0x18>
 10c:	22301863          	bne	zero,gp,33c <fail>
 110:	fe20cee3          	blt	ra,sp,10c <test_6+0x14>

00000114 <test_7>:
 114:	00700193          	li	gp,7
 118:	fff00093          	li	ra,-1
 11c:	ffe00113          	li	sp,-2
 120:	0020c463          	blt	ra,sp,128 <test_7+0x14>
 124:	00301463          	bne	zero,gp,12c <test_7+0x18>
 128:	20301a63          	bne	zero,gp,33c <fail>
 12c:	fe20cee3          	blt	ra,sp,128 <test_7+0x14>

00000130 <test_8>:
 130:	00800193          	li	gp,8
 134:	00100093          	li	ra,1
 138:	ffe00113          	li	sp,-2
 13c:	0020c463          	blt	ra,sp,144 <test_8+0x14>
 140:	00301463          	bne	zero,gp,148 <test_8+0x18>
 144:	1e301c63          	bne	zero,gp,33c <fail>
 148:	fe20cee3          	blt	ra,sp,144 <test_8+0x14>

0000014c <test_9>:
 14c:	00900193          	li	gp,9
 150:	00000213          	li	tp,0
 154:	00000093          	li	ra,0
 158:	fff00113          	li	sp,-1
 15c:	1e20c063          	blt	ra,sp,33c <fail>
 160:	00120213          	addi	tp,tp,1 # 1 <_start+0x1>
 164:	00200293          	li	t0,2
 168:	fe5216e3          	bne	tp,t0,154 <test_9+0x8>

0000016c <test_10>:
 16c:	00a00193          	li	gp,10
 170:	00000213          	li	tp,0
 174:	00000093          	li	ra,0
 178:	fff00113          	li	sp,-1
 17c:	00000013          	nop
 180:	1a20ce63          	blt	ra,sp,33c <fail>
 184:	00120213          	addi	tp,tp,1 # 1 <_start+0x1>
 188:	00200293          	li	t0,2
 18c:	fe5214e3          	bne	tp,t0,174 <test_10+0x8>

00000190 <test_11>:
 190:	00b00193          	li	gp,11
 194:	00000213          	li	tp,0
 198:	00000093          	li	ra,0
 19c:	fff00113          	li	sp,-1
 1a0:	00000013          	nop
 1a4:	00000013          	nop
 1a8:	1820ca63          	blt	ra,sp,33c <fail>
 1ac:	00120213          	addi	tp,tp,1 # 1 <_start+0x1>
 1b0:	00200293          	li	t0,2
 1b4:	fe5212e3          	bne	tp,t0,198 <test_11+0x8>

000001b8 <test_12>:
 1b8:	00c00193          	li	gp,12
 1bc:	00000213          	li	tp,0
 1c0:	00000093          	li	ra,0
 1c4:	00000013          	nop
 1c8:	fff00113          	li	sp,-1
 1cc:	1620c863          	blt	ra,sp,33c <fail>
 1d0:	00120213          	addi	tp,tp,1 # 1 <_start+0x1>
 1d4:	00200293          	li	t0,2
 1d8:	fe5214e3          	bne	tp,t0,1c0 <test_12+0x8>

000001dc <test_13>:
 1dc:	00d00193          	li	gp,13
 1e0:	00000213          	li	tp,0
 1e4:	00000093          	li	ra,0
 1e8:	00000013          	nop
 1ec:	fff00113          	li	sp,-1
 1f0:	00000013          	nop
 1f4:	1420c463          	blt	ra,sp,33c <fail>
 1f8:	00120213          	addi	tp,tp,1 # 1 <_start+0x1>
 1fc:	00200293          	li	t0,2
 200:	fe5212e3          	bne	tp,t0,1e4 <test_13+0x8>

00000204 <test_14>:
 204:	00e00193          	li	gp,14
 208:	00000213          	li	tp,0
 20c:	00000093          	li	ra,0
 210:	00000013          	nop
 214:	00000013          	nop
 218:	fff00113          	li	sp,-1
 21c:	1220c063          	blt	ra,sp,33c <fail>
 220:	00120213          	addi	tp,tp,1 # 1 <_start+0x1>
 224:	00200293          	li	t0,2
 228:	fe5212e3          	bne	tp,t0,20c <test_14+0x8>

0000022c <test_15>:
 22c:	00f00193          	li	gp,15
 230:	00000213          	li	tp,0
 234:	00000093          	li	ra,0
 238:	fff00113          	li	sp,-1
 23c:	1020c063          	blt	ra,sp,33c <fail>
 240:	00120213          	addi	tp,tp,1 # 1 <_start+0x1>
 244:	00200293          	li	t0,2
 248:	fe5216e3          	bne	tp,t0,234 <test_15+0x8>

0000024c <test_16>:
 24c:	01000193          	li	gp,16
 250:	00000213          	li	tp,0
 254:	00000093          	li	ra,0
 258:	fff00113          	li	sp,-1
 25c:	00000013          	nop
 260:	0c20ce63          	blt	ra,sp,33c <fail>
 264:	00120213          	addi	tp,tp,1 # 1 <_start+0x1>
 268:	00200293          	li	t0,2
 26c:	fe5214e3          	bne	tp,t0,254 <test_16+0x8>

00000270 <test_17>:
 270:	01100193          	li	gp,17
 274:	00000213          	li	tp,0
 278:	00000093          	li	ra,0
 27c:	fff00113          	li	sp,-1
 280:	00000013          	nop
 284:	00000013          	nop
 288:	0a20ca63          	blt	ra,sp,33c <fail>
 28c:	00120213          	addi	tp,tp,1 # 1 <_start+0x1>
 290:	00200293          	li	t0,2
 294:	fe5212e3          	bne	tp,t0,278 <test_17+0x8>

00000298 <test_18>:
 298:	01200193          	li	gp,18
 29c:	00000213          	li	tp,0
 2a0:	00000093          	li	ra,0
 2a4:	00000013          	nop
 2a8:	fff00113          	li	sp,-1
 2ac:	0820c863          	blt	ra,sp,33c <fail>
 2b0:	00120213          	addi	tp,tp,1 # 1 <_start+0x1>
 2b4:	00200293          	li	t0,2
 2b8:	fe5214e3          	bne	tp,t0,2a0 <test_18+0x8>

000002bc <test_19>:
 2bc:	01300193          	li	gp,19
 2c0:	00000213          	li	tp,0
 2c4:	00000093          	li	ra,0
 2c8:	00000013          	nop
 2cc:	fff00113          	li	sp,-1
 2d0:	00000013          	nop
 2d4:	0620c463          	blt	ra,sp,33c <fail>
 2d8:	00120213          	addi	tp,tp,1 # 1 <_start+0x1>
 2dc:	00200293          	li	t0,2
 2e0:	fe5212e3          	bne	tp,t0,2c4 <test_19+0x8>

000002e4 <test_20>:
 2e4:	01400193          	li	gp,20
 2e8:	00000213          	li	tp,0
 2ec:	00000093          	li	ra,0
 2f0:	00000013          	nop
 2f4:	00000013          	nop
 2f8:	fff00113          	li	sp,-1
 2fc:	0420c063          	blt	ra,sp,33c <fail>
 300:	00120213          	addi	tp,tp,1 # 1 <_start+0x1>
 304:	00200293          	li	t0,2
 308:	fe5212e3          	bne	tp,t0,2ec <test_20+0x8>

0000030c <test_21>:
 30c:	00100093          	li	ra,1
 310:	00104a63          	bgtz	ra,324 <test_21+0x18>
 314:	00108093          	addi	ra,ra,1
 318:	00108093          	addi	ra,ra,1
 31c:	00108093          	addi	ra,ra,1
 320:	00108093          	addi	ra,ra,1
 324:	00108093          	addi	ra,ra,1
 328:	00108093          	addi	ra,ra,1
 32c:	00300393          	li	t2,3
 330:	01500193          	li	gp,21
 334:	00709463          	bne	ra,t2,33c <fail>
 338:	00301a63          	bne	zero,gp,34c <pass>

0000033c <fail>:
 33c:	00f00093          	li	ra,15
 340:	00f00113          	li	sp,15
 344:	00f00193          	li	gp,15

00000348 <fail_loop>:
 348:	0000006f          	j	348 <fail_loop>

0000034c <pass>:
 34c:	00100093          	li	ra,1
 350:	00200113          	li	sp,2
 354:	00300193          	li	gp,3

00000358 <pass_loop>:
 358:	0000006f          	j	358 <pass_loop>
 35c:	c0001073          	unimp
	...
