
generated/rv32ui-sb:     file format elf32-littleriscv


Disassembly of section .text.init:

00000000 <_start>:
   0:	00000093          	li	ra,0
   4:	00000113          	li	sp,0
   8:	00000193          	li	gp,0
   c:	00000213          	li	tp,0
  10:	00000293          	li	t0,0
  14:	00000313          	li	t1,0
  18:	00000393          	li	t2,0
  1c:	00000413          	li	s0,0
  20:	00000493          	li	s1,0
  24:	00000513          	li	a0,0
  28:	00000593          	li	a1,0
  2c:	00000613          	li	a2,0
  30:	00000693          	li	a3,0
  34:	00000713          	li	a4,0
  38:	00000793          	li	a5,0
  3c:	00000813          	li	a6,0
  40:	00000893          	li	a7,0
  44:	00000913          	li	s2,0
  48:	00000993          	li	s3,0
  4c:	00000a13          	li	s4,0
  50:	00000a93          	li	s5,0
  54:	00000b13          	li	s6,0
  58:	00000b93          	li	s7,0
  5c:	00000c13          	li	s8,0
  60:	00000c93          	li	s9,0
  64:	00000d13          	li	s10,0
  68:	00000d93          	li	s11,0
  6c:	00000e13          	li	t3,0
  70:	00000e93          	li	t4,0
  74:	00000f13          	li	t5,0
  78:	00000f93          	li	t6,0

0000007c <test_2>:
  7c:	01000097          	auipc	ra,0x1000
  80:	f8408093          	addi	ra,ra,-124 # 1000000 <tdat>
  84:	faa00113          	li	sp,-86
  88:	00208023          	sb	sp,0(ra)
  8c:	00008703          	lb	a4,0(ra)
  90:	faa00393          	li	t2,-86
  94:	00200193          	li	gp,2
  98:	3c771c63          	bne	a4,t2,470 <fail>

0000009c <test_3>:
  9c:	01000097          	auipc	ra,0x1000
  a0:	f6408093          	addi	ra,ra,-156 # 1000000 <tdat>
  a4:	00000113          	li	sp,0
  a8:	002080a3          	sb	sp,1(ra)
  ac:	00108703          	lb	a4,1(ra)
  b0:	00000393          	li	t2,0
  b4:	00300193          	li	gp,3
  b8:	3a771c63          	bne	a4,t2,470 <fail>

000000bc <test_4>:
  bc:	01000097          	auipc	ra,0x1000
  c0:	f4408093          	addi	ra,ra,-188 # 1000000 <tdat>
  c4:	fffff137          	lui	sp,0xfffff
  c8:	fa010113          	addi	sp,sp,-96 # ffffefa0 <_end+0xfeffef90>
  cc:	00208123          	sb	sp,2(ra)
  d0:	00209703          	lh	a4,2(ra)
  d4:	fffff3b7          	lui	t2,0xfffff
  d8:	fa038393          	addi	t2,t2,-96 # ffffefa0 <_end+0xfeffef90>
  dc:	00400193          	li	gp,4
  e0:	38771863          	bne	a4,t2,470 <fail>

000000e4 <test_5>:
  e4:	01000097          	auipc	ra,0x1000
  e8:	f1c08093          	addi	ra,ra,-228 # 1000000 <tdat>
  ec:	00a00113          	li	sp,10
  f0:	002081a3          	sb	sp,3(ra)
  f4:	00308703          	lb	a4,3(ra)
  f8:	00a00393          	li	t2,10
  fc:	00500193          	li	gp,5
 100:	36771863          	bne	a4,t2,470 <fail>

00000104 <test_6>:
 104:	01000097          	auipc	ra,0x1000
 108:	f0308093          	addi	ra,ra,-253 # 1000007 <tdat8>
 10c:	faa00113          	li	sp,-86
 110:	fe208ea3          	sb	sp,-3(ra)
 114:	ffd08703          	lb	a4,-3(ra)
 118:	faa00393          	li	t2,-86
 11c:	00600193          	li	gp,6
 120:	34771863          	bne	a4,t2,470 <fail>

00000124 <test_7>:
 124:	01000097          	auipc	ra,0x1000
 128:	ee308093          	addi	ra,ra,-285 # 1000007 <tdat8>
 12c:	00000113          	li	sp,0
 130:	fe208f23          	sb	sp,-2(ra)
 134:	ffe08703          	lb	a4,-2(ra)
 138:	00000393          	li	t2,0
 13c:	00700193          	li	gp,7
 140:	32771863          	bne	a4,t2,470 <fail>

00000144 <test_8>:
 144:	01000097          	auipc	ra,0x1000
 148:	ec308093          	addi	ra,ra,-317 # 1000007 <tdat8>
 14c:	fa000113          	li	sp,-96
 150:	fe208fa3          	sb	sp,-1(ra)
 154:	fff08703          	lb	a4,-1(ra)
 158:	fa000393          	li	t2,-96
 15c:	00800193          	li	gp,8
 160:	30771863          	bne	a4,t2,470 <fail>

00000164 <test_9>:
 164:	01000097          	auipc	ra,0x1000
 168:	ea308093          	addi	ra,ra,-349 # 1000007 <tdat8>
 16c:	00a00113          	li	sp,10
 170:	00208023          	sb	sp,0(ra)
 174:	00008703          	lb	a4,0(ra)
 178:	00a00393          	li	t2,10
 17c:	00900193          	li	gp,9
 180:	2e771863          	bne	a4,t2,470 <fail>

00000184 <test_10>:
 184:	01000097          	auipc	ra,0x1000
 188:	e8408093          	addi	ra,ra,-380 # 1000008 <tdat9>
 18c:	12345137          	lui	sp,0x12345
 190:	67810113          	addi	sp,sp,1656 # 12345678 <_end+0x11345668>
 194:	fe008213          	addi	tp,ra,-32
 198:	02220023          	sb	sp,32(tp) # 20 <_start+0x20>
 19c:	00008283          	lb	t0,0(ra)
 1a0:	07800393          	li	t2,120
 1a4:	00a00193          	li	gp,10
 1a8:	2c729463          	bne	t0,t2,470 <fail>

000001ac <test_11>:
 1ac:	01000097          	auipc	ra,0x1000
 1b0:	e5c08093          	addi	ra,ra,-420 # 1000008 <tdat9>
 1b4:	00003137          	lui	sp,0x3
 1b8:	09810113          	addi	sp,sp,152 # 3098 <pass_loop+0x2c0c>
 1bc:	ffa08093          	addi	ra,ra,-6
 1c0:	002083a3          	sb	sp,7(ra)
 1c4:	01000217          	auipc	tp,0x1000
 1c8:	e4520213          	addi	tp,tp,-443 # 1000009 <tdat10>
 1cc:	00020283          	lb	t0,0(tp) # 0 <_start>
 1d0:	f9800393          	li	t2,-104
 1d4:	00b00193          	li	gp,11
 1d8:	28729c63          	bne	t0,t2,470 <fail>

000001dc <test_12>:
 1dc:	00c00193          	li	gp,12
 1e0:	00000213          	li	tp,0
 1e4:	fdd00093          	li	ra,-35
 1e8:	01000117          	auipc	sp,0x1000
 1ec:	e1810113          	addi	sp,sp,-488 # 1000000 <tdat>
 1f0:	00110023          	sb	ra,0(sp)
 1f4:	00010703          	lb	a4,0(sp)
 1f8:	fdd00393          	li	t2,-35
 1fc:	26771a63          	bne	a4,t2,470 <fail>
 200:	00120213          	addi	tp,tp,1 # 1 <_start+0x1>
 204:	00200293          	li	t0,2
 208:	fc521ee3          	bne	tp,t0,1e4 <test_12+0x8>

0000020c <test_13>:
 20c:	00d00193          	li	gp,13
 210:	00000213          	li	tp,0
 214:	fcd00093          	li	ra,-51
 218:	01000117          	auipc	sp,0x1000
 21c:	de810113          	addi	sp,sp,-536 # 1000000 <tdat>
 220:	00000013          	nop
 224:	001100a3          	sb	ra,1(sp)
 228:	00110703          	lb	a4,1(sp)
 22c:	fcd00393          	li	t2,-51
 230:	24771063          	bne	a4,t2,470 <fail>
 234:	00120213          	addi	tp,tp,1 # 1 <_start+0x1>
 238:	00200293          	li	t0,2
 23c:	fc521ce3          	bne	tp,t0,214 <test_13+0x8>

00000240 <test_14>:
 240:	00e00193          	li	gp,14
 244:	00000213          	li	tp,0
 248:	fcc00093          	li	ra,-52
 24c:	01000117          	auipc	sp,0x1000
 250:	db410113          	addi	sp,sp,-588 # 1000000 <tdat>
 254:	00000013          	nop
 258:	00000013          	nop
 25c:	00110123          	sb	ra,2(sp)
 260:	00210703          	lb	a4,2(sp)
 264:	fcc00393          	li	t2,-52
 268:	20771463          	bne	a4,t2,470 <fail>
 26c:	00120213          	addi	tp,tp,1 # 1 <_start+0x1>
 270:	00200293          	li	t0,2
 274:	fc521ae3          	bne	tp,t0,248 <test_14+0x8>

00000278 <test_15>:
 278:	00f00193          	li	gp,15
 27c:	00000213          	li	tp,0
 280:	fbc00093          	li	ra,-68
 284:	00000013          	nop
 288:	01000117          	auipc	sp,0x1000
 28c:	d7810113          	addi	sp,sp,-648 # 1000000 <tdat>
 290:	001101a3          	sb	ra,3(sp)
 294:	00310703          	lb	a4,3(sp)
 298:	fbc00393          	li	t2,-68
 29c:	1c771a63          	bne	a4,t2,470 <fail>
 2a0:	00120213          	addi	tp,tp,1 # 1 <_start+0x1>
 2a4:	00200293          	li	t0,2
 2a8:	fc521ce3          	bne	tp,t0,280 <test_15+0x8>

000002ac <test_16>:
 2ac:	01000193          	li	gp,16
 2b0:	00000213          	li	tp,0
 2b4:	fbb00093          	li	ra,-69
 2b8:	00000013          	nop
 2bc:	01000117          	auipc	sp,0x1000
 2c0:	d4410113          	addi	sp,sp,-700 # 1000000 <tdat>
 2c4:	00000013          	nop
 2c8:	00110223          	sb	ra,4(sp)
 2cc:	00410703          	lb	a4,4(sp)
 2d0:	fbb00393          	li	t2,-69
 2d4:	18771e63          	bne	a4,t2,470 <fail>
 2d8:	00120213          	addi	tp,tp,1 # 1 <_start+0x1>
 2dc:	00200293          	li	t0,2
 2e0:	fc521ae3          	bne	tp,t0,2b4 <test_16+0x8>

000002e4 <test_17>:
 2e4:	01100193          	li	gp,17
 2e8:	00000213          	li	tp,0
 2ec:	fab00093          	li	ra,-85
 2f0:	00000013          	nop
 2f4:	00000013          	nop
 2f8:	01000117          	auipc	sp,0x1000
 2fc:	d0810113          	addi	sp,sp,-760 # 1000000 <tdat>
 300:	001102a3          	sb	ra,5(sp)
 304:	00510703          	lb	a4,5(sp)
 308:	fab00393          	li	t2,-85
 30c:	16771263          	bne	a4,t2,470 <fail>
 310:	00120213          	addi	tp,tp,1 # 1 <_start+0x1>
 314:	00200293          	li	t0,2
 318:	fc521ae3          	bne	tp,t0,2ec <test_17+0x8>

0000031c <test_18>:
 31c:	01200193          	li	gp,18
 320:	00000213          	li	tp,0
 324:	01000117          	auipc	sp,0x1000
 328:	cdc10113          	addi	sp,sp,-804 # 1000000 <tdat>
 32c:	03300093          	li	ra,51
 330:	00110023          	sb	ra,0(sp)
 334:	00010703          	lb	a4,0(sp)
 338:	03300393          	li	t2,51
 33c:	12771a63          	bne	a4,t2,470 <fail>
 340:	00120213          	addi	tp,tp,1 # 1 <_start+0x1>
 344:	00200293          	li	t0,2
 348:	fc521ee3          	bne	tp,t0,324 <test_18+0x8>

0000034c <test_19>:
 34c:	01300193          	li	gp,19
 350:	00000213          	li	tp,0
 354:	01000117          	auipc	sp,0x1000
 358:	cac10113          	addi	sp,sp,-852 # 1000000 <tdat>
 35c:	02300093          	li	ra,35
 360:	00000013          	nop
 364:	001100a3          	sb	ra,1(sp)
 368:	00110703          	lb	a4,1(sp)
 36c:	02300393          	li	t2,35
 370:	10771063          	bne	a4,t2,470 <fail>
 374:	00120213          	addi	tp,tp,1 # 1 <_start+0x1>
 378:	00200293          	li	t0,2
 37c:	fc521ce3          	bne	tp,t0,354 <test_19+0x8>

00000380 <test_20>:
 380:	01400193          	li	gp,20
 384:	00000213          	li	tp,0
 388:	01000117          	auipc	sp,0x1000
 38c:	c7810113          	addi	sp,sp,-904 # 1000000 <tdat>
 390:	02200093          	li	ra,34
 394:	00000013          	nop
 398:	00000013          	nop
 39c:	00110123          	sb	ra,2(sp)
 3a0:	00210703          	lb	a4,2(sp)
 3a4:	02200393          	li	t2,34
 3a8:	0c771463          	bne	a4,t2,470 <fail>
 3ac:	00120213          	addi	tp,tp,1 # 1 <_start+0x1>
 3b0:	00200293          	li	t0,2
 3b4:	fc521ae3          	bne	tp,t0,388 <test_20+0x8>

000003b8 <test_21>:
 3b8:	01500193          	li	gp,21
 3bc:	00000213          	li	tp,0
 3c0:	01000117          	auipc	sp,0x1000
 3c4:	c4010113          	addi	sp,sp,-960 # 1000000 <tdat>
 3c8:	00000013          	nop
 3cc:	01200093          	li	ra,18
 3d0:	001101a3          	sb	ra,3(sp)
 3d4:	00310703          	lb	a4,3(sp)
 3d8:	01200393          	li	t2,18
 3dc:	08771a63          	bne	a4,t2,470 <fail>
 3e0:	00120213          	addi	tp,tp,1 # 1 <_start+0x1>
 3e4:	00200293          	li	t0,2
 3e8:	fc521ce3          	bne	tp,t0,3c0 <test_21+0x8>

000003ec <test_22>:
 3ec:	01600193          	li	gp,22
 3f0:	00000213          	li	tp,0
 3f4:	01000117          	auipc	sp,0x1000
 3f8:	c0c10113          	addi	sp,sp,-1012 # 1000000 <tdat>
 3fc:	00000013          	nop
 400:	01100093          	li	ra,17
 404:	00000013          	nop
 408:	00110223          	sb	ra,4(sp)
 40c:	00410703          	lb	a4,4(sp)
 410:	01100393          	li	t2,17
 414:	04771e63          	bne	a4,t2,470 <fail>
 418:	00120213          	addi	tp,tp,1 # 1 <_start+0x1>
 41c:	00200293          	li	t0,2
 420:	fc521ae3          	bne	tp,t0,3f4 <test_22+0x8>

00000424 <test_23>:
 424:	01700193          	li	gp,23
 428:	00000213          	li	tp,0
 42c:	01000117          	auipc	sp,0x1000
 430:	bd410113          	addi	sp,sp,-1068 # 1000000 <tdat>
 434:	00000013          	nop
 438:	00000013          	nop
 43c:	00100093          	li	ra,1
 440:	001102a3          	sb	ra,5(sp)
 444:	00510703          	lb	a4,5(sp)
 448:	00100393          	li	t2,1
 44c:	02771263          	bne	a4,t2,470 <fail>
 450:	00120213          	addi	tp,tp,1 # 1 <_start+0x1>
 454:	00200293          	li	t0,2
 458:	fc521ae3          	bne	tp,t0,42c <test_23+0x8>
 45c:	0ef00513          	li	a0,239
 460:	01000597          	auipc	a1,0x1000
 464:	ba058593          	addi	a1,a1,-1120 # 1000000 <tdat>
 468:	00a581a3          	sb	a0,3(a1)
 46c:	00301a63          	bne	zero,gp,480 <pass>

00000470 <fail>:
 470:	00f00093          	li	ra,15
 474:	00f00113          	li	sp,15
 478:	00f00193          	li	gp,15

0000047c <fail_loop>:
 47c:	0000006f          	j	47c <fail_loop>

00000480 <pass>:
 480:	00100093          	li	ra,1
 484:	00200113          	li	sp,2
 488:	00300193          	li	gp,3

0000048c <pass_loop>:
 48c:	0000006f          	j	48c <pass_loop>
 490:	c0001073          	unimp
	...
