
generated/rv32ui-andi:     file format elf32-littleriscv


Disassembly of section .text.init:

00000000 <_start>:
   0:	00000093          	li	ra,0
   4:	00000113          	li	sp,0
   8:	00000193          	li	gp,0
   c:	00000213          	li	tp,0
  10:	00000293          	li	t0,0
  14:	00000313          	li	t1,0
  18:	00000393          	li	t2,0
  1c:	00000413          	li	s0,0
  20:	00000493          	li	s1,0
  24:	00000513          	li	a0,0
  28:	00000593          	li	a1,0
  2c:	00000613          	li	a2,0
  30:	00000693          	li	a3,0
  34:	00000713          	li	a4,0
  38:	00000793          	li	a5,0
  3c:	00000813          	li	a6,0
  40:	00000893          	li	a7,0
  44:	00000913          	li	s2,0
  48:	00000993          	li	s3,0
  4c:	00000a13          	li	s4,0
  50:	00000a93          	li	s5,0
  54:	00000b13          	li	s6,0
  58:	00000b93          	li	s7,0
  5c:	00000c13          	li	s8,0
  60:	00000c93          	li	s9,0
  64:	00000d13          	li	s10,0
  68:	00000d93          	li	s11,0
  6c:	00000e13          	li	t3,0
  70:	00000e93          	li	t4,0
  74:	00000f13          	li	t5,0
  78:	00000f93          	li	t6,0

0000007c <test_2>:
  7c:	ff0100b7          	lui	ra,0xff010
  80:	f0008093          	addi	ra,ra,-256 # ff00ff00 <_end+0xff00ef00>
  84:	f0f0f713          	andi	a4,ra,-241
  88:	ff0103b7          	lui	t2,0xff010
  8c:	f0038393          	addi	t2,t2,-256 # ff00ff00 <_end+0xff00ef00>
  90:	00200193          	li	gp,2
  94:	1a771463          	bne	a4,t2,23c <fail>

00000098 <test_3>:
  98:	0ff010b7          	lui	ra,0xff01
  9c:	ff008093          	addi	ra,ra,-16 # ff00ff0 <_end+0xfeffff0>
  a0:	0f00f713          	andi	a4,ra,240
  a4:	0f000393          	li	t2,240
  a8:	00300193          	li	gp,3
  ac:	18771863          	bne	a4,t2,23c <fail>

000000b0 <test_4>:
  b0:	00ff00b7          	lui	ra,0xff0
  b4:	0ff08093          	addi	ra,ra,255 # ff00ff <_end+0xfef0ff>
  b8:	70f0f713          	andi	a4,ra,1807
  bc:	00f00393          	li	t2,15
  c0:	00400193          	li	gp,4
  c4:	16771c63          	bne	a4,t2,23c <fail>

000000c8 <test_5>:
  c8:	f00ff0b7          	lui	ra,0xf00ff
  cc:	00f08093          	addi	ra,ra,15 # f00ff00f <_end+0xf00fe00f>
  d0:	0f00f713          	andi	a4,ra,240
  d4:	00000393          	li	t2,0
  d8:	00500193          	li	gp,5
  dc:	16771063          	bne	a4,t2,23c <fail>

000000e0 <test_6>:
  e0:	ff0100b7          	lui	ra,0xff010
  e4:	f0008093          	addi	ra,ra,-256 # ff00ff00 <_end+0xff00ef00>
  e8:	0f00f093          	andi	ra,ra,240
  ec:	00000393          	li	t2,0
  f0:	00600193          	li	gp,6
  f4:	14709463          	bne	ra,t2,23c <fail>

000000f8 <test_7>:
  f8:	00000213          	li	tp,0
  fc:	0ff010b7          	lui	ra,0xff01
 100:	ff008093          	addi	ra,ra,-16 # ff00ff0 <_end+0xfeffff0>
 104:	70f0f713          	andi	a4,ra,1807
 108:	00070313          	mv	t1,a4
 10c:	00120213          	addi	tp,tp,1 # 1 <_start+0x1>
 110:	00200293          	li	t0,2
 114:	fe5214e3          	bne	tp,t0,fc <test_7+0x4>
 118:	70000393          	li	t2,1792
 11c:	00700193          	li	gp,7
 120:	10731e63          	bne	t1,t2,23c <fail>

00000124 <test_8>:
 124:	00000213          	li	tp,0
 128:	00ff00b7          	lui	ra,0xff0
 12c:	0ff08093          	addi	ra,ra,255 # ff00ff <_end+0xfef0ff>
 130:	0f00f713          	andi	a4,ra,240
 134:	00000013          	nop
 138:	00070313          	mv	t1,a4
 13c:	00120213          	addi	tp,tp,1 # 1 <_start+0x1>
 140:	00200293          	li	t0,2
 144:	fe5212e3          	bne	tp,t0,128 <test_8+0x4>
 148:	0f000393          	li	t2,240
 14c:	00800193          	li	gp,8
 150:	0e731663          	bne	t1,t2,23c <fail>

00000154 <test_9>:
 154:	00000213          	li	tp,0
 158:	f00ff0b7          	lui	ra,0xf00ff
 15c:	00f08093          	addi	ra,ra,15 # f00ff00f <_end+0xf00fe00f>
 160:	f0f0f713          	andi	a4,ra,-241
 164:	00000013          	nop
 168:	00000013          	nop
 16c:	00070313          	mv	t1,a4
 170:	00120213          	addi	tp,tp,1 # 1 <_start+0x1>
 174:	00200293          	li	t0,2
 178:	fe5210e3          	bne	tp,t0,158 <test_9+0x4>
 17c:	f00ff3b7          	lui	t2,0xf00ff
 180:	00f38393          	addi	t2,t2,15 # f00ff00f <_end+0xf00fe00f>
 184:	00900193          	li	gp,9
 188:	0a731a63          	bne	t1,t2,23c <fail>

0000018c <test_10>:
 18c:	00000213          	li	tp,0
 190:	0ff010b7          	lui	ra,0xff01
 194:	ff008093          	addi	ra,ra,-16 # ff00ff0 <_end+0xfeffff0>
 198:	70f0f713          	andi	a4,ra,1807
 19c:	00120213          	addi	tp,tp,1 # 1 <_start+0x1>
 1a0:	00200293          	li	t0,2
 1a4:	fe5216e3          	bne	tp,t0,190 <test_10+0x4>
 1a8:	70000393          	li	t2,1792
 1ac:	00a00193          	li	gp,10
 1b0:	08771663          	bne	a4,t2,23c <fail>

000001b4 <test_11>:
 1b4:	00000213          	li	tp,0
 1b8:	00ff00b7          	lui	ra,0xff0
 1bc:	0ff08093          	addi	ra,ra,255 # ff00ff <_end+0xfef0ff>
 1c0:	00000013          	nop
 1c4:	0f00f713          	andi	a4,ra,240
 1c8:	00120213          	addi	tp,tp,1 # 1 <_start+0x1>
 1cc:	00200293          	li	t0,2
 1d0:	fe5214e3          	bne	tp,t0,1b8 <test_11+0x4>
 1d4:	0f000393          	li	t2,240
 1d8:	00b00193          	li	gp,11
 1dc:	06771063          	bne	a4,t2,23c <fail>

000001e0 <test_12>:
 1e0:	00000213          	li	tp,0
 1e4:	f00ff0b7          	lui	ra,0xf00ff
 1e8:	00f08093          	addi	ra,ra,15 # f00ff00f <_end+0xf00fe00f>
 1ec:	00000013          	nop
 1f0:	00000013          	nop
 1f4:	70f0f713          	andi	a4,ra,1807
 1f8:	00120213          	addi	tp,tp,1 # 1 <_start+0x1>
 1fc:	00200293          	li	t0,2
 200:	fe5212e3          	bne	tp,t0,1e4 <test_12+0x4>
 204:	00f00393          	li	t2,15
 208:	00c00193          	li	gp,12
 20c:	02771863          	bne	a4,t2,23c <fail>

00000210 <test_13>:
 210:	0f007093          	andi	ra,zero,240
 214:	00000393          	li	t2,0
 218:	00d00193          	li	gp,13
 21c:	02709063          	bne	ra,t2,23c <fail>

00000220 <test_14>:
 220:	00ff00b7          	lui	ra,0xff0
 224:	0ff08093          	addi	ra,ra,255 # ff00ff <_end+0xfef0ff>
 228:	70f0f013          	andi	zero,ra,1807
 22c:	00000393          	li	t2,0
 230:	00e00193          	li	gp,14
 234:	00701463          	bne	zero,t2,23c <fail>
 238:	00301a63          	bne	zero,gp,24c <pass>

0000023c <fail>:
 23c:	00f00093          	li	ra,15
 240:	00f00113          	li	sp,15
 244:	00f00193          	li	gp,15

00000248 <fail_loop>:
 248:	0000006f          	j	248 <fail_loop>

0000024c <pass>:
 24c:	00100093          	li	ra,1
 250:	00200113          	li	sp,2
 254:	00300193          	li	gp,3

00000258 <pass_loop>:
 258:	0000006f          	j	258 <pass_loop>
 25c:	c0001073          	unimp
	...
