
generated/rv32mi-ma_addr:     file format elf32-littleriscv


Disassembly of section .text.init:

00000000 <_start>:
   0:	00000093          	li	ra,0
   4:	00000113          	li	sp,0
   8:	00000193          	li	gp,0
   c:	00000213          	li	tp,0
  10:	00000293          	li	t0,0
  14:	00000313          	li	t1,0
  18:	00000393          	li	t2,0
  1c:	00000413          	li	s0,0
  20:	00000493          	li	s1,0
  24:	00000513          	li	a0,0
  28:	00000593          	li	a1,0
  2c:	00000613          	li	a2,0
  30:	00000693          	li	a3,0
  34:	00000713          	li	a4,0
  38:	00000793          	li	a5,0
  3c:	00000813          	li	a6,0
  40:	00000893          	li	a7,0
  44:	00000913          	li	s2,0
  48:	00000993          	li	s3,0
  4c:	00000a13          	li	s4,0
  50:	00000a93          	li	s5,0
  54:	00000b13          	li	s6,0
  58:	00000b93          	li	s7,0
  5c:	00000c13          	li	s8,0
  60:	00000c93          	li	s9,0
  64:	00000d13          	li	s10,0
  68:	00000d93          	li	s11,0
  6c:	00000e13          	li	t3,0
  70:	00000e93          	li	t4,0
  74:	00000f13          	li	t5,0
  78:	00000f93          	li	t6,0
  7c:	00000297          	auipc	t0,0x0
  80:	11c28293          	addi	t0,t0,284 # 198 <mtvec_handler>
  84:	00229293          	slli	t0,t0,0x2
  88:	30529073          	csrw	mtvec,t0
  8c:	00001417          	auipc	s0,0x1
  90:	f7440413          	addi	s0,s0,-140 # 1000 <data>
  94:	00400493          	li	s1,4
  98:	00200193          	li	gp,2
  9c:	00000397          	auipc	t2,0x0
  a0:	01c38393          	addi	t2,t2,28 # b8 <_start+0xb8>
  a4:	00140313          	addi	t1,s0,1
  a8:	00141303          	lh	t1,1(s0)
  ac:	ffffc3b7          	lui	t2,0xffffc
  b0:	bcc38393          	addi	t2,t2,-1076 # ffffbbcc <_end+0xffffaabc>
  b4:	0c731063          	bne	t1,t2,174 <fail>
  b8:	00300193          	li	gp,3
  bc:	00000397          	auipc	t2,0x0
  c0:	01c38393          	addi	t2,t2,28 # d8 <_start+0xd8>
  c4:	00140313          	addi	t1,s0,1
  c8:	00145303          	lhu	t1,1(s0)
  cc:	0000c3b7          	lui	t2,0xc
  d0:	bcc38393          	addi	t2,t2,-1076 # bbcc <_end+0xaabc>
  d4:	0a731063          	bne	t1,t2,174 <fail>
  d8:	00400193          	li	gp,4
  dc:	00000397          	auipc	t2,0x0
  e0:	01c38393          	addi	t2,t2,28 # f8 <_start+0xf8>
  e4:	00140313          	addi	t1,s0,1
  e8:	00142303          	lw	t1,1(s0)
  ec:	99aac3b7          	lui	t2,0x99aac
  f0:	bcc38393          	addi	t2,t2,-1076 # 99aabbcc <_end+0x99aaaabc>
  f4:	08731063          	bne	t1,t2,174 <fail>
  f8:	00500193          	li	gp,5
  fc:	00000397          	auipc	t2,0x0
 100:	01c38393          	addi	t2,t2,28 # 118 <_start+0x118>
 104:	00240313          	addi	t1,s0,2
 108:	00242303          	lw	t1,2(s0)
 10c:	8899b3b7          	lui	t2,0x8899b
 110:	abb38393          	addi	t2,t2,-1349 # 8899aabb <_end+0x889999ab>
 114:	06731063          	bne	t1,t2,174 <fail>
 118:	00600193          	li	gp,6
 11c:	00000397          	auipc	t2,0x0
 120:	01c38393          	addi	t2,t2,28 # 138 <_start+0x138>
 124:	00340313          	addi	t1,s0,3
 128:	00342303          	lw	t1,3(s0)
 12c:	7788a3b7          	lui	t2,0x7788a
 130:	9aa38393          	addi	t2,t2,-1622 # 778899aa <_end+0x7788889a>
 134:	04731063          	bne	t1,t2,174 <fail>
 138:	00600493          	li	s1,6
 13c:	01600193          	li	gp,22
 140:	00000397          	auipc	t2,0x0
 144:	03038393          	addi	t2,t2,48 # 170 <_start+0x170>
 148:	00140313          	addi	t1,s0,1
 14c:	000410a3          	sh	zero,1(s0)
 150:	00040303          	lb	t1,0(s0)
 154:	02030063          	beqz	t1,174 <fail>
 158:	00340303          	lb	t1,3(s0)
 15c:	00030c63          	beqz	t1,174 <fail>
 160:	00140303          	lb	t1,1(s0)
 164:	00031863          	bnez	t1,174 <fail>
 168:	00240303          	lb	t1,2(s0)
 16c:	00031463          	bnez	t1,174 <fail>
 170:	00301a63          	bne	zero,gp,184 <pass>

00000174 <fail>:
 174:	00f00093          	li	ra,15
 178:	00f00113          	li	sp,15
 17c:	00f00193          	li	gp,15

00000180 <fail_loop>:
 180:	0000006f          	j	180 <fail_loop>

00000184 <pass>:
 184:	00100093          	li	ra,1
 188:	00200113          	li	sp,2
 18c:	00300193          	li	gp,3

00000190 <pass_loop>:
 190:	0000006f          	j	190 <pass_loop>
 194:	00000013          	nop

00000198 <mtvec_handler>:
 198:	342022f3          	csrr	t0,mcause
 19c:	fc929ce3          	bne	t0,s1,174 <fail>
 1a0:	343022f3          	csrr	t0,mtval
 1a4:	fc6298e3          	bne	t0,t1,174 <fail>
 1a8:	00028283          	lb	t0,0(t0)
 1ac:	fc0284e3          	beqz	t0,174 <fail>
 1b0:	34139073          	csrw	mepc,t2
 1b4:	30200073          	mret
 1b8:	c0001073          	unimp
	...
