
generated/rv32ui-ori:     file format elf32-littleriscv


Disassembly of section .text.init:

00000000 <_start>:
   0:	00000093          	li	ra,0
   4:	00000113          	li	sp,0
   8:	00000193          	li	gp,0
   c:	00000213          	li	tp,0
  10:	00000293          	li	t0,0
  14:	00000313          	li	t1,0
  18:	00000393          	li	t2,0
  1c:	00000413          	li	s0,0
  20:	00000493          	li	s1,0
  24:	00000513          	li	a0,0
  28:	00000593          	li	a1,0
  2c:	00000613          	li	a2,0
  30:	00000693          	li	a3,0
  34:	00000713          	li	a4,0
  38:	00000793          	li	a5,0
  3c:	00000813          	li	a6,0
  40:	00000893          	li	a7,0
  44:	00000913          	li	s2,0
  48:	00000993          	li	s3,0
  4c:	00000a13          	li	s4,0
  50:	00000a93          	li	s5,0
  54:	00000b13          	li	s6,0
  58:	00000b93          	li	s7,0
  5c:	00000c13          	li	s8,0
  60:	00000c93          	li	s9,0
  64:	00000d13          	li	s10,0
  68:	00000d93          	li	s11,0
  6c:	00000e13          	li	t3,0
  70:	00000e93          	li	t4,0
  74:	00000f13          	li	t5,0
  78:	00000f93          	li	t6,0

0000007c <test_2>:
  7c:	ff0100b7          	lui	ra,0xff010
  80:	f0008093          	addi	ra,ra,-256 # ff00ff00 <_end+0xfe00ff00>
  84:	f0f0e713          	ori	a4,ra,-241
  88:	f0f00393          	li	t2,-241
  8c:	00200193          	li	gp,2
  90:	1c771463          	bne	a4,t2,258 <fail>

00000094 <test_3>:
  94:	0ff010b7          	lui	ra,0xff01
  98:	ff008093          	addi	ra,ra,-16 # ff00ff0 <_end+0xef00ff0>
  9c:	0f00e713          	ori	a4,ra,240
  a0:	0ff013b7          	lui	t2,0xff01
  a4:	ff038393          	addi	t2,t2,-16 # ff00ff0 <_end+0xef00ff0>
  a8:	00300193          	li	gp,3
  ac:	1a771663          	bne	a4,t2,258 <fail>

000000b0 <test_4>:
  b0:	00ff00b7          	lui	ra,0xff0
  b4:	0ff08093          	addi	ra,ra,255 # ff00ff <pass_loop+0xfefe8b>
  b8:	70f0e713          	ori	a4,ra,1807
  bc:	00ff03b7          	lui	t2,0xff0
  c0:	7ff38393          	addi	t2,t2,2047 # ff07ff <pass_loop+0xff058b>
  c4:	00400193          	li	gp,4
  c8:	18771863          	bne	a4,t2,258 <fail>

000000cc <test_5>:
  cc:	f00ff0b7          	lui	ra,0xf00ff
  d0:	00f08093          	addi	ra,ra,15 # f00ff00f <_end+0xef0ff00f>
  d4:	0f00e713          	ori	a4,ra,240
  d8:	f00ff3b7          	lui	t2,0xf00ff
  dc:	0ff38393          	addi	t2,t2,255 # f00ff0ff <_end+0xef0ff0ff>
  e0:	00500193          	li	gp,5
  e4:	16771a63          	bne	a4,t2,258 <fail>

000000e8 <test_6>:
  e8:	ff0100b7          	lui	ra,0xff010
  ec:	f0008093          	addi	ra,ra,-256 # ff00ff00 <_end+0xfe00ff00>
  f0:	0f00e093          	ori	ra,ra,240
  f4:	ff0103b7          	lui	t2,0xff010
  f8:	ff038393          	addi	t2,t2,-16 # ff00fff0 <_end+0xfe00fff0>
  fc:	00600193          	li	gp,6
 100:	14709c63          	bne	ra,t2,258 <fail>

00000104 <test_7>:
 104:	00000213          	li	tp,0
 108:	0ff010b7          	lui	ra,0xff01
 10c:	ff008093          	addi	ra,ra,-16 # ff00ff0 <_end+0xef00ff0>
 110:	0f00e713          	ori	a4,ra,240
 114:	00070313          	mv	t1,a4
 118:	00120213          	addi	tp,tp,1 # 1 <_start+0x1>
 11c:	00200293          	li	t0,2
 120:	fe5214e3          	bne	tp,t0,108 <test_7+0x4>
 124:	0ff013b7          	lui	t2,0xff01
 128:	ff038393          	addi	t2,t2,-16 # ff00ff0 <_end+0xef00ff0>
 12c:	00700193          	li	gp,7
 130:	12731463          	bne	t1,t2,258 <fail>

00000134 <test_8>:
 134:	00000213          	li	tp,0
 138:	00ff00b7          	lui	ra,0xff0
 13c:	0ff08093          	addi	ra,ra,255 # ff00ff <pass_loop+0xfefe8b>
 140:	70f0e713          	ori	a4,ra,1807
 144:	00000013          	nop
 148:	00070313          	mv	t1,a4
 14c:	00120213          	addi	tp,tp,1 # 1 <_start+0x1>
 150:	00200293          	li	t0,2
 154:	fe5212e3          	bne	tp,t0,138 <test_8+0x4>
 158:	00ff03b7          	lui	t2,0xff0
 15c:	7ff38393          	addi	t2,t2,2047 # ff07ff <pass_loop+0xff058b>
 160:	00800193          	li	gp,8
 164:	0e731a63          	bne	t1,t2,258 <fail>

00000168 <test_9>:
 168:	00000213          	li	tp,0
 16c:	f00ff0b7          	lui	ra,0xf00ff
 170:	00f08093          	addi	ra,ra,15 # f00ff00f <_end+0xef0ff00f>
 174:	0f00e713          	ori	a4,ra,240
 178:	00000013          	nop
 17c:	00000013          	nop
 180:	00070313          	mv	t1,a4
 184:	00120213          	addi	tp,tp,1 # 1 <_start+0x1>
 188:	00200293          	li	t0,2
 18c:	fe5210e3          	bne	tp,t0,16c <test_9+0x4>
 190:	f00ff3b7          	lui	t2,0xf00ff
 194:	0ff38393          	addi	t2,t2,255 # f00ff0ff <_end+0xef0ff0ff>
 198:	00900193          	li	gp,9
 19c:	0a731e63          	bne	t1,t2,258 <fail>

000001a0 <test_10>:
 1a0:	00000213          	li	tp,0
 1a4:	0ff010b7          	lui	ra,0xff01
 1a8:	ff008093          	addi	ra,ra,-16 # ff00ff0 <_end+0xef00ff0>
 1ac:	0f00e713          	ori	a4,ra,240
 1b0:	00120213          	addi	tp,tp,1 # 1 <_start+0x1>
 1b4:	00200293          	li	t0,2
 1b8:	fe5216e3          	bne	tp,t0,1a4 <test_10+0x4>
 1bc:	0ff013b7          	lui	t2,0xff01
 1c0:	ff038393          	addi	t2,t2,-16 # ff00ff0 <_end+0xef00ff0>
 1c4:	00a00193          	li	gp,10
 1c8:	08771863          	bne	a4,t2,258 <fail>

000001cc <test_11>:
 1cc:	00000213          	li	tp,0
 1d0:	00ff00b7          	lui	ra,0xff0
 1d4:	0ff08093          	addi	ra,ra,255 # ff00ff <pass_loop+0xfefe8b>
 1d8:	00000013          	nop
 1dc:	f0f0e713          	ori	a4,ra,-241
 1e0:	00120213          	addi	tp,tp,1 # 1 <_start+0x1>
 1e4:	00200293          	li	t0,2
 1e8:	fe5214e3          	bne	tp,t0,1d0 <test_11+0x4>
 1ec:	fff00393          	li	t2,-1
 1f0:	00b00193          	li	gp,11
 1f4:	06771263          	bne	a4,t2,258 <fail>

000001f8 <test_12>:
 1f8:	00000213          	li	tp,0
 1fc:	f00ff0b7          	lui	ra,0xf00ff
 200:	00f08093          	addi	ra,ra,15 # f00ff00f <_end+0xef0ff00f>
 204:	00000013          	nop
 208:	00000013          	nop
 20c:	0f00e713          	ori	a4,ra,240
 210:	00120213          	addi	tp,tp,1 # 1 <_start+0x1>
 214:	00200293          	li	t0,2
 218:	fe5212e3          	bne	tp,t0,1fc <test_12+0x4>
 21c:	f00ff3b7          	lui	t2,0xf00ff
 220:	0ff38393          	addi	t2,t2,255 # f00ff0ff <_end+0xef0ff0ff>
 224:	00c00193          	li	gp,12
 228:	02771863          	bne	a4,t2,258 <fail>

0000022c <test_13>:
 22c:	0f006093          	ori	ra,zero,240
 230:	0f000393          	li	t2,240
 234:	00d00193          	li	gp,13
 238:	02709063          	bne	ra,t2,258 <fail>

0000023c <test_14>:
 23c:	00ff00b7          	lui	ra,0xff0
 240:	0ff08093          	addi	ra,ra,255 # ff00ff <pass_loop+0xfefe8b>
 244:	70f0e013          	ori	zero,ra,1807
 248:	00000393          	li	t2,0
 24c:	00e00193          	li	gp,14
 250:	00701463          	bne	zero,t2,258 <fail>
 254:	00301a63          	bne	zero,gp,268 <pass>

00000258 <fail>:
 258:	00f00093          	li	ra,15
 25c:	00f00113          	li	sp,15
 260:	00f00193          	li	gp,15

00000264 <fail_loop>:
 264:	0000006f          	j	264 <fail_loop>

00000268 <pass>:
 268:	00100093          	li	ra,1
 26c:	00200113          	li	sp,2
 270:	00300193          	li	gp,3

00000274 <pass_loop>:
 274:	0000006f          	j	274 <pass_loop>
 278:	c0001073          	unimp
	...
