
generated/rv32ui-jalr:     file format elf32-littleriscv


Disassembly of section .text.init:

00000000 <_start>:
   0:	00000093          	li	ra,0
   4:	00000113          	li	sp,0
   8:	00000193          	li	gp,0
   c:	00000213          	li	tp,0
  10:	00000293          	li	t0,0
  14:	00000313          	li	t1,0
  18:	00000393          	li	t2,0
  1c:	00000413          	li	s0,0
  20:	00000493          	li	s1,0
  24:	00000513          	li	a0,0
  28:	00000593          	li	a1,0
  2c:	00000613          	li	a2,0
  30:	00000693          	li	a3,0
  34:	00000713          	li	a4,0
  38:	00000793          	li	a5,0
  3c:	00000813          	li	a6,0
  40:	00000893          	li	a7,0
  44:	00000913          	li	s2,0
  48:	00000993          	li	s3,0
  4c:	00000a13          	li	s4,0
  50:	00000a93          	li	s5,0
  54:	00000b13          	li	s6,0
  58:	00000b93          	li	s7,0
  5c:	00000c13          	li	s8,0
  60:	00000c93          	li	s9,0
  64:	00000d13          	li	s10,0
  68:	00000d93          	li	s11,0
  6c:	00000e13          	li	t3,0
  70:	00000e93          	li	t4,0
  74:	00000f13          	li	t5,0
  78:	00000f93          	li	t6,0

0000007c <test_2>:
  7c:	00200193          	li	gp,2
  80:	00000293          	li	t0,0
  84:	00000317          	auipc	t1,0x0
  88:	01030313          	addi	t1,t1,16 # 94 <target_2>
  8c:	000302e7          	jalr	t0,t1

00000090 <linkaddr_2>:
  90:	0e00006f          	j	170 <fail>

00000094 <target_2>:
  94:	00000317          	auipc	t1,0x0
  98:	ffc30313          	addi	t1,t1,-4 # 90 <linkaddr_2>
  9c:	0c629a63          	bne	t0,t1,170 <fail>

000000a0 <test_3>:
  a0:	00300193          	li	gp,3
  a4:	00000297          	auipc	t0,0x0
  a8:	01028293          	addi	t0,t0,16 # b4 <target_3>
  ac:	000282e7          	jalr	t0,t0

000000b0 <linkaddr_3>:
  b0:	0c00006f          	j	170 <fail>

000000b4 <target_3>:
  b4:	00000317          	auipc	t1,0x0
  b8:	ffc30313          	addi	t1,t1,-4 # b0 <linkaddr_3>
  bc:	0a629a63          	bne	t0,t1,170 <fail>

000000c0 <test_4>:
  c0:	00400193          	li	gp,4
  c4:	00000213          	li	tp,0
  c8:	00000317          	auipc	t1,0x0
  cc:	01030313          	addi	t1,t1,16 # d8 <test_4+0x18>
  d0:	000306e7          	jalr	a3,t1
  d4:	08301e63          	bne	zero,gp,170 <fail>
  d8:	00120213          	addi	tp,tp,1 # 1 <_start+0x1>
  dc:	00200293          	li	t0,2
  e0:	fe5214e3          	bne	tp,t0,c8 <test_4+0x8>

000000e4 <test_5>:
  e4:	00500193          	li	gp,5
  e8:	00000213          	li	tp,0
  ec:	00000317          	auipc	t1,0x0
  f0:	01430313          	addi	t1,t1,20 # 100 <test_5+0x1c>
  f4:	00000013          	nop
  f8:	000306e7          	jalr	a3,t1
  fc:	06301a63          	bne	zero,gp,170 <fail>
 100:	00120213          	addi	tp,tp,1 # 1 <_start+0x1>
 104:	00200293          	li	t0,2
 108:	fe5212e3          	bne	tp,t0,ec <test_5+0x8>

0000010c <test_6>:
 10c:	00600193          	li	gp,6
 110:	00000213          	li	tp,0
 114:	00000317          	auipc	t1,0x0
 118:	01830313          	addi	t1,t1,24 # 12c <test_6+0x20>
 11c:	00000013          	nop
 120:	00000013          	nop
 124:	000306e7          	jalr	a3,t1
 128:	04301463          	bne	zero,gp,170 <fail>
 12c:	00120213          	addi	tp,tp,1 # 1 <_start+0x1>
 130:	00200293          	li	t0,2
 134:	fe5210e3          	bne	tp,t0,114 <test_6+0x8>

00000138 <test_7>:
 138:	00100293          	li	t0,1
 13c:	00000317          	auipc	t1,0x0
 140:	01c30313          	addi	t1,t1,28 # 158 <test_7+0x20>
 144:	ffc30067          	jr	-4(t1)
 148:	00128293          	addi	t0,t0,1
 14c:	00128293          	addi	t0,t0,1
 150:	00128293          	addi	t0,t0,1
 154:	00128293          	addi	t0,t0,1
 158:	00128293          	addi	t0,t0,1
 15c:	00128293          	addi	t0,t0,1
 160:	00400393          	li	t2,4
 164:	00700193          	li	gp,7
 168:	00729463          	bne	t0,t2,170 <fail>
 16c:	00301a63          	bne	zero,gp,180 <pass>

00000170 <fail>:
 170:	00f00093          	li	ra,15
 174:	00f00113          	li	sp,15
 178:	00f00193          	li	gp,15

0000017c <fail_loop>:
 17c:	0000006f          	j	17c <fail_loop>

00000180 <pass>:
 180:	00100093          	li	ra,1
 184:	00200113          	li	sp,2
 188:	00300193          	li	gp,3

0000018c <pass_loop>:
 18c:	0000006f          	j	18c <pass_loop>
 190:	c0001073          	unimp
	...
