
generated/rv32ui-lbu:     file format elf32-littleriscv


Disassembly of section .text.init:

00000000 <_start>:
   0:	00000093          	li	ra,0
   4:	00000113          	li	sp,0
   8:	00000193          	li	gp,0
   c:	00000213          	li	tp,0
  10:	00000293          	li	t0,0
  14:	00000313          	li	t1,0
  18:	00000393          	li	t2,0
  1c:	00000413          	li	s0,0
  20:	00000493          	li	s1,0
  24:	00000513          	li	a0,0
  28:	00000593          	li	a1,0
  2c:	00000613          	li	a2,0
  30:	00000693          	li	a3,0
  34:	00000713          	li	a4,0
  38:	00000793          	li	a5,0
  3c:	00000813          	li	a6,0
  40:	00000893          	li	a7,0
  44:	00000913          	li	s2,0
  48:	00000993          	li	s3,0
  4c:	00000a13          	li	s4,0
  50:	00000a93          	li	s5,0
  54:	00000b13          	li	s6,0
  58:	00000b93          	li	s7,0
  5c:	00000c13          	li	s8,0
  60:	00000c93          	li	s9,0
  64:	00000d13          	li	s10,0
  68:	00000d93          	li	s11,0
  6c:	00000e13          	li	t3,0
  70:	00000e93          	li	t4,0
  74:	00000f13          	li	t5,0
  78:	00000f93          	li	t6,0

0000007c <test_2>:
  7c:	01000097          	auipc	ra,0x1000
  80:	f8408093          	addi	ra,ra,-124 # 1000000 <tdat>
  84:	0000c703          	lbu	a4,0(ra)
  88:	0ff00393          	li	t2,255
  8c:	00200193          	li	gp,2
  90:	22771c63          	bne	a4,t2,2c8 <fail>

00000094 <test_3>:
  94:	01000097          	auipc	ra,0x1000
  98:	f6c08093          	addi	ra,ra,-148 # 1000000 <tdat>
  9c:	0010c703          	lbu	a4,1(ra)
  a0:	00000393          	li	t2,0
  a4:	00300193          	li	gp,3
  a8:	22771063          	bne	a4,t2,2c8 <fail>

000000ac <test_4>:
  ac:	01000097          	auipc	ra,0x1000
  b0:	f5408093          	addi	ra,ra,-172 # 1000000 <tdat>
  b4:	0020c703          	lbu	a4,2(ra)
  b8:	0f000393          	li	t2,240
  bc:	00400193          	li	gp,4
  c0:	20771463          	bne	a4,t2,2c8 <fail>

000000c4 <test_5>:
  c4:	01000097          	auipc	ra,0x1000
  c8:	f3c08093          	addi	ra,ra,-196 # 1000000 <tdat>
  cc:	0030c703          	lbu	a4,3(ra)
  d0:	00f00393          	li	t2,15
  d4:	00500193          	li	gp,5
  d8:	1e771863          	bne	a4,t2,2c8 <fail>

000000dc <test_6>:
  dc:	01000097          	auipc	ra,0x1000
  e0:	f2708093          	addi	ra,ra,-217 # 1000003 <tdat4>
  e4:	ffd0c703          	lbu	a4,-3(ra)
  e8:	0ff00393          	li	t2,255
  ec:	00600193          	li	gp,6
  f0:	1c771c63          	bne	a4,t2,2c8 <fail>

000000f4 <test_7>:
  f4:	01000097          	auipc	ra,0x1000
  f8:	f0f08093          	addi	ra,ra,-241 # 1000003 <tdat4>
  fc:	ffe0c703          	lbu	a4,-2(ra)
 100:	00000393          	li	t2,0
 104:	00700193          	li	gp,7
 108:	1c771063          	bne	a4,t2,2c8 <fail>

0000010c <test_8>:
 10c:	01000097          	auipc	ra,0x1000
 110:	ef708093          	addi	ra,ra,-265 # 1000003 <tdat4>
 114:	fff0c703          	lbu	a4,-1(ra)
 118:	0f000393          	li	t2,240
 11c:	00800193          	li	gp,8
 120:	1a771463          	bne	a4,t2,2c8 <fail>

00000124 <test_9>:
 124:	01000097          	auipc	ra,0x1000
 128:	edf08093          	addi	ra,ra,-289 # 1000003 <tdat4>
 12c:	0000c703          	lbu	a4,0(ra)
 130:	00f00393          	li	t2,15
 134:	00900193          	li	gp,9
 138:	18771863          	bne	a4,t2,2c8 <fail>

0000013c <test_10>:
 13c:	01000097          	auipc	ra,0x1000
 140:	ec408093          	addi	ra,ra,-316 # 1000000 <tdat>
 144:	fe008093          	addi	ra,ra,-32
 148:	0200c283          	lbu	t0,32(ra)
 14c:	0ff00393          	li	t2,255
 150:	00a00193          	li	gp,10
 154:	16729a63          	bne	t0,t2,2c8 <fail>

00000158 <test_11>:
 158:	01000097          	auipc	ra,0x1000
 15c:	ea808093          	addi	ra,ra,-344 # 1000000 <tdat>
 160:	ffa08093          	addi	ra,ra,-6
 164:	0070c283          	lbu	t0,7(ra)
 168:	00000393          	li	t2,0
 16c:	00b00193          	li	gp,11
 170:	14729c63          	bne	t0,t2,2c8 <fail>

00000174 <test_12>:
 174:	00c00193          	li	gp,12
 178:	00000213          	li	tp,0
 17c:	01000097          	auipc	ra,0x1000
 180:	e8508093          	addi	ra,ra,-379 # 1000001 <tdat2>
 184:	0010c703          	lbu	a4,1(ra)
 188:	00070313          	mv	t1,a4
 18c:	0f000393          	li	t2,240
 190:	12731c63          	bne	t1,t2,2c8 <fail>
 194:	00120213          	addi	tp,tp,1 # 1 <_start+0x1>
 198:	00200293          	li	t0,2
 19c:	fe5210e3          	bne	tp,t0,17c <test_12+0x8>

000001a0 <test_13>:
 1a0:	00d00193          	li	gp,13
 1a4:	00000213          	li	tp,0
 1a8:	01000097          	auipc	ra,0x1000
 1ac:	e5a08093          	addi	ra,ra,-422 # 1000002 <tdat3>
 1b0:	0010c703          	lbu	a4,1(ra)
 1b4:	00000013          	nop
 1b8:	00070313          	mv	t1,a4
 1bc:	00f00393          	li	t2,15
 1c0:	10731463          	bne	t1,t2,2c8 <fail>
 1c4:	00120213          	addi	tp,tp,1 # 1 <_start+0x1>
 1c8:	00200293          	li	t0,2
 1cc:	fc521ee3          	bne	tp,t0,1a8 <test_13+0x8>

000001d0 <test_14>:
 1d0:	00e00193          	li	gp,14
 1d4:	00000213          	li	tp,0
 1d8:	01000097          	auipc	ra,0x1000
 1dc:	e2808093          	addi	ra,ra,-472 # 1000000 <tdat>
 1e0:	0010c703          	lbu	a4,1(ra)
 1e4:	00000013          	nop
 1e8:	00000013          	nop
 1ec:	00070313          	mv	t1,a4
 1f0:	00000393          	li	t2,0
 1f4:	0c731a63          	bne	t1,t2,2c8 <fail>
 1f8:	00120213          	addi	tp,tp,1 # 1 <_start+0x1>
 1fc:	00200293          	li	t0,2
 200:	fc521ce3          	bne	tp,t0,1d8 <test_14+0x8>

00000204 <test_15>:
 204:	00f00193          	li	gp,15
 208:	00000213          	li	tp,0
 20c:	01000097          	auipc	ra,0x1000
 210:	df508093          	addi	ra,ra,-523 # 1000001 <tdat2>
 214:	0010c703          	lbu	a4,1(ra)
 218:	0f000393          	li	t2,240
 21c:	0a771663          	bne	a4,t2,2c8 <fail>
 220:	00120213          	addi	tp,tp,1 # 1 <_start+0x1>
 224:	00200293          	li	t0,2
 228:	fe5212e3          	bne	tp,t0,20c <test_15+0x8>

0000022c <test_16>:
 22c:	01000193          	li	gp,16
 230:	00000213          	li	tp,0
 234:	01000097          	auipc	ra,0x1000
 238:	dce08093          	addi	ra,ra,-562 # 1000002 <tdat3>
 23c:	00000013          	nop
 240:	0010c703          	lbu	a4,1(ra)
 244:	00f00393          	li	t2,15
 248:	08771063          	bne	a4,t2,2c8 <fail>
 24c:	00120213          	addi	tp,tp,1 # 1 <_start+0x1>
 250:	00200293          	li	t0,2
 254:	fe5210e3          	bne	tp,t0,234 <test_16+0x8>

00000258 <test_17>:
 258:	01100193          	li	gp,17
 25c:	00000213          	li	tp,0
 260:	01000097          	auipc	ra,0x1000
 264:	da008093          	addi	ra,ra,-608 # 1000000 <tdat>
 268:	00000013          	nop
 26c:	00000013          	nop
 270:	0010c703          	lbu	a4,1(ra)
 274:	00000393          	li	t2,0
 278:	04771863          	bne	a4,t2,2c8 <fail>
 27c:	00120213          	addi	tp,tp,1 # 1 <_start+0x1>
 280:	00200293          	li	t0,2
 284:	fc521ee3          	bne	tp,t0,260 <test_17+0x8>

00000288 <test_18>:
 288:	01000297          	auipc	t0,0x1000
 28c:	d7828293          	addi	t0,t0,-648 # 1000000 <tdat>
 290:	0002c103          	lbu	sp,0(t0)
 294:	00200113          	li	sp,2
 298:	00200393          	li	t2,2
 29c:	01200193          	li	gp,18
 2a0:	02711463          	bne	sp,t2,2c8 <fail>

000002a4 <test_19>:
 2a4:	01000297          	auipc	t0,0x1000
 2a8:	d5c28293          	addi	t0,t0,-676 # 1000000 <tdat>
 2ac:	0002c103          	lbu	sp,0(t0)
 2b0:	00000013          	nop
 2b4:	00200113          	li	sp,2
 2b8:	00200393          	li	t2,2
 2bc:	01300193          	li	gp,19
 2c0:	00711463          	bne	sp,t2,2c8 <fail>
 2c4:	00301a63          	bne	zero,gp,2d8 <pass>

000002c8 <fail>:
 2c8:	00f00093          	li	ra,15
 2cc:	00f00113          	li	sp,15
 2d0:	00f00193          	li	gp,15

000002d4 <fail_loop>:
 2d4:	0000006f          	j	2d4 <fail_loop>

000002d8 <pass>:
 2d8:	00100093          	li	ra,1
 2dc:	00200113          	li	sp,2
 2e0:	00300193          	li	gp,3

000002e4 <pass_loop>:
 2e4:	0000006f          	j	2e4 <pass_loop>
 2e8:	c0001073          	unimp
	...
