
generated/rv32ui-add:     file format elf32-littleriscv


Disassembly of section .text.init:

00000000 <_start>:
   0:	00000093          	li	ra,0
   4:	00000113          	li	sp,0
   8:	00000193          	li	gp,0
   c:	00000213          	li	tp,0
  10:	00000293          	li	t0,0
  14:	00000313          	li	t1,0
  18:	00000393          	li	t2,0
  1c:	00000413          	li	s0,0
  20:	00000493          	li	s1,0
  24:	00000513          	li	a0,0
  28:	00000593          	li	a1,0
  2c:	00000613          	li	a2,0
  30:	00000693          	li	a3,0
  34:	00000713          	li	a4,0
  38:	00000793          	li	a5,0
  3c:	00000813          	li	a6,0
  40:	00000893          	li	a7,0
  44:	00000913          	li	s2,0
  48:	00000993          	li	s3,0
  4c:	00000a13          	li	s4,0
  50:	00000a93          	li	s5,0
  54:	00000b13          	li	s6,0
  58:	00000b93          	li	s7,0
  5c:	00000c13          	li	s8,0
  60:	00000c93          	li	s9,0
  64:	00000d13          	li	s10,0
  68:	00000d93          	li	s11,0
  6c:	00000e13          	li	t3,0
  70:	00000e93          	li	t4,0
  74:	00000f13          	li	t5,0
  78:	00000f93          	li	t6,0

0000007c <test_2>:
  7c:	00000093          	li	ra,0
  80:	00000113          	li	sp,0
  84:	00208733          	add	a4,ra,sp
  88:	00000393          	li	t2,0
  8c:	00200193          	li	gp,2
  90:	4c771663          	bne	a4,t2,55c <fail>

00000094 <test_3>:
  94:	00100093          	li	ra,1
  98:	00100113          	li	sp,1
  9c:	00208733          	add	a4,ra,sp
  a0:	00200393          	li	t2,2
  a4:	00300193          	li	gp,3
  a8:	4a771a63          	bne	a4,t2,55c <fail>

000000ac <test_4>:
  ac:	00300093          	li	ra,3
  b0:	00700113          	li	sp,7
  b4:	00208733          	add	a4,ra,sp
  b8:	00a00393          	li	t2,10
  bc:	00400193          	li	gp,4
  c0:	48771e63          	bne	a4,t2,55c <fail>

000000c4 <test_5>:
  c4:	00000093          	li	ra,0
  c8:	ffff8137          	lui	sp,0xffff8
  cc:	00208733          	add	a4,ra,sp
  d0:	ffff83b7          	lui	t2,0xffff8
  d4:	00500193          	li	gp,5
  d8:	48771263          	bne	a4,t2,55c <fail>

000000dc <test_6>:
  dc:	800000b7          	lui	ra,0x80000
  e0:	00000113          	li	sp,0
  e4:	00208733          	add	a4,ra,sp
  e8:	800003b7          	lui	t2,0x80000
  ec:	00600193          	li	gp,6
  f0:	46771663          	bne	a4,t2,55c <fail>

000000f4 <test_7>:
  f4:	800000b7          	lui	ra,0x80000
  f8:	ffff8137          	lui	sp,0xffff8
  fc:	00208733          	add	a4,ra,sp
 100:	7fff83b7          	lui	t2,0x7fff8
 104:	00700193          	li	gp,7
 108:	44771a63          	bne	a4,t2,55c <fail>

0000010c <test_8>:
 10c:	00000093          	li	ra,0
 110:	00008137          	lui	sp,0x8
 114:	fff10113          	addi	sp,sp,-1 # 7fff <_end+0x6fff>
 118:	00208733          	add	a4,ra,sp
 11c:	000083b7          	lui	t2,0x8
 120:	fff38393          	addi	t2,t2,-1 # 7fff <_end+0x6fff>
 124:	00800193          	li	gp,8
 128:	42771a63          	bne	a4,t2,55c <fail>

0000012c <test_9>:
 12c:	800000b7          	lui	ra,0x80000
 130:	fff08093          	addi	ra,ra,-1 # 7fffffff <_end+0x7fffefff>
 134:	00000113          	li	sp,0
 138:	00208733          	add	a4,ra,sp
 13c:	800003b7          	lui	t2,0x80000
 140:	fff38393          	addi	t2,t2,-1 # 7fffffff <_end+0x7fffefff>
 144:	00900193          	li	gp,9
 148:	40771a63          	bne	a4,t2,55c <fail>

0000014c <test_10>:
 14c:	800000b7          	lui	ra,0x80000
 150:	fff08093          	addi	ra,ra,-1 # 7fffffff <_end+0x7fffefff>
 154:	00008137          	lui	sp,0x8
 158:	fff10113          	addi	sp,sp,-1 # 7fff <_end+0x6fff>
 15c:	00208733          	add	a4,ra,sp
 160:	800083b7          	lui	t2,0x80008
 164:	ffe38393          	addi	t2,t2,-2 # 80007ffe <_end+0x80006ffe>
 168:	00a00193          	li	gp,10
 16c:	3e771863          	bne	a4,t2,55c <fail>

00000170 <test_11>:
 170:	800000b7          	lui	ra,0x80000
 174:	00008137          	lui	sp,0x8
 178:	fff10113          	addi	sp,sp,-1 # 7fff <_end+0x6fff>
 17c:	00208733          	add	a4,ra,sp
 180:	800083b7          	lui	t2,0x80008
 184:	fff38393          	addi	t2,t2,-1 # 80007fff <_end+0x80006fff>
 188:	00b00193          	li	gp,11
 18c:	3c771863          	bne	a4,t2,55c <fail>

00000190 <test_12>:
 190:	800000b7          	lui	ra,0x80000
 194:	fff08093          	addi	ra,ra,-1 # 7fffffff <_end+0x7fffefff>
 198:	ffff8137          	lui	sp,0xffff8
 19c:	00208733          	add	a4,ra,sp
 1a0:	7fff83b7          	lui	t2,0x7fff8
 1a4:	fff38393          	addi	t2,t2,-1 # 7fff7fff <_end+0x7fff6fff>
 1a8:	00c00193          	li	gp,12
 1ac:	3a771863          	bne	a4,t2,55c <fail>

000001b0 <test_13>:
 1b0:	00000093          	li	ra,0
 1b4:	fff00113          	li	sp,-1
 1b8:	00208733          	add	a4,ra,sp
 1bc:	fff00393          	li	t2,-1
 1c0:	00d00193          	li	gp,13
 1c4:	38771c63          	bne	a4,t2,55c <fail>

000001c8 <test_14>:
 1c8:	fff00093          	li	ra,-1
 1cc:	00100113          	li	sp,1
 1d0:	00208733          	add	a4,ra,sp
 1d4:	00000393          	li	t2,0
 1d8:	00e00193          	li	gp,14
 1dc:	38771063          	bne	a4,t2,55c <fail>

000001e0 <test_15>:
 1e0:	fff00093          	li	ra,-1
 1e4:	fff00113          	li	sp,-1
 1e8:	00208733          	add	a4,ra,sp
 1ec:	ffe00393          	li	t2,-2
 1f0:	00f00193          	li	gp,15
 1f4:	36771463          	bne	a4,t2,55c <fail>

000001f8 <test_16>:
 1f8:	00100093          	li	ra,1
 1fc:	80000137          	lui	sp,0x80000
 200:	fff10113          	addi	sp,sp,-1 # 7fffffff <_end+0x7fffefff>
 204:	00208733          	add	a4,ra,sp
 208:	800003b7          	lui	t2,0x80000
 20c:	01000193          	li	gp,16
 210:	34771663          	bne	a4,t2,55c <fail>

00000214 <test_17>:
 214:	00d00093          	li	ra,13
 218:	00b00113          	li	sp,11
 21c:	002080b3          	add	ra,ra,sp
 220:	01800393          	li	t2,24
 224:	01100193          	li	gp,17
 228:	32709a63          	bne	ra,t2,55c <fail>

0000022c <test_18>:
 22c:	00e00093          	li	ra,14
 230:	00b00113          	li	sp,11
 234:	00208133          	add	sp,ra,sp
 238:	01900393          	li	t2,25
 23c:	01200193          	li	gp,18
 240:	30711e63          	bne	sp,t2,55c <fail>

00000244 <test_19>:
 244:	00d00093          	li	ra,13
 248:	001080b3          	add	ra,ra,ra
 24c:	01a00393          	li	t2,26
 250:	01300193          	li	gp,19
 254:	30709463          	bne	ra,t2,55c <fail>

00000258 <test_20>:
 258:	00000213          	li	tp,0
 25c:	00d00093          	li	ra,13
 260:	00b00113          	li	sp,11
 264:	00208733          	add	a4,ra,sp
 268:	00070313          	mv	t1,a4
 26c:	00120213          	addi	tp,tp,1 # 1 <_start+0x1>
 270:	00200293          	li	t0,2
 274:	fe5214e3          	bne	tp,t0,25c <test_20+0x4>
 278:	01800393          	li	t2,24
 27c:	01400193          	li	gp,20
 280:	2c731e63          	bne	t1,t2,55c <fail>

00000284 <test_21>:
 284:	00000213          	li	tp,0
 288:	00e00093          	li	ra,14
 28c:	00b00113          	li	sp,11
 290:	00208733          	add	a4,ra,sp
 294:	00000013          	nop
 298:	00070313          	mv	t1,a4
 29c:	00120213          	addi	tp,tp,1 # 1 <_start+0x1>
 2a0:	00200293          	li	t0,2
 2a4:	fe5212e3          	bne	tp,t0,288 <test_21+0x4>
 2a8:	01900393          	li	t2,25
 2ac:	01500193          	li	gp,21
 2b0:	2a731663          	bne	t1,t2,55c <fail>

000002b4 <test_22>:
 2b4:	00000213          	li	tp,0
 2b8:	00f00093          	li	ra,15
 2bc:	00b00113          	li	sp,11
 2c0:	00208733          	add	a4,ra,sp
 2c4:	00000013          	nop
 2c8:	00000013          	nop
 2cc:	00070313          	mv	t1,a4
 2d0:	00120213          	addi	tp,tp,1 # 1 <_start+0x1>
 2d4:	00200293          	li	t0,2
 2d8:	fe5210e3          	bne	tp,t0,2b8 <test_22+0x4>
 2dc:	01a00393          	li	t2,26
 2e0:	01600193          	li	gp,22
 2e4:	26731c63          	bne	t1,t2,55c <fail>

000002e8 <test_23>:
 2e8:	00000213          	li	tp,0
 2ec:	00d00093          	li	ra,13
 2f0:	00b00113          	li	sp,11
 2f4:	00208733          	add	a4,ra,sp
 2f8:	00120213          	addi	tp,tp,1 # 1 <_start+0x1>
 2fc:	00200293          	li	t0,2
 300:	fe5216e3          	bne	tp,t0,2ec <test_23+0x4>
 304:	01800393          	li	t2,24
 308:	01700193          	li	gp,23
 30c:	24771863          	bne	a4,t2,55c <fail>

00000310 <test_24>:
 310:	00000213          	li	tp,0
 314:	00e00093          	li	ra,14
 318:	00b00113          	li	sp,11
 31c:	00000013          	nop
 320:	00208733          	add	a4,ra,sp
 324:	00120213          	addi	tp,tp,1 # 1 <_start+0x1>
 328:	00200293          	li	t0,2
 32c:	fe5214e3          	bne	tp,t0,314 <test_24+0x4>
 330:	01900393          	li	t2,25
 334:	01800193          	li	gp,24
 338:	22771263          	bne	a4,t2,55c <fail>

0000033c <test_25>:
 33c:	00000213          	li	tp,0
 340:	00f00093          	li	ra,15
 344:	00b00113          	li	sp,11
 348:	00000013          	nop
 34c:	00000013          	nop
 350:	00208733          	add	a4,ra,sp
 354:	00120213          	addi	tp,tp,1 # 1 <_start+0x1>
 358:	00200293          	li	t0,2
 35c:	fe5212e3          	bne	tp,t0,340 <test_25+0x4>
 360:	01a00393          	li	t2,26
 364:	01900193          	li	gp,25
 368:	1e771a63          	bne	a4,t2,55c <fail>

0000036c <test_26>:
 36c:	00000213          	li	tp,0
 370:	00d00093          	li	ra,13
 374:	00000013          	nop
 378:	00b00113          	li	sp,11
 37c:	00208733          	add	a4,ra,sp
 380:	00120213          	addi	tp,tp,1 # 1 <_start+0x1>
 384:	00200293          	li	t0,2
 388:	fe5214e3          	bne	tp,t0,370 <test_26+0x4>
 38c:	01800393          	li	t2,24
 390:	01a00193          	li	gp,26
 394:	1c771463          	bne	a4,t2,55c <fail>

00000398 <test_27>:
 398:	00000213          	li	tp,0
 39c:	00e00093          	li	ra,14
 3a0:	00000013          	nop
 3a4:	00b00113          	li	sp,11
 3a8:	00000013          	nop
 3ac:	00208733          	add	a4,ra,sp
 3b0:	00120213          	addi	tp,tp,1 # 1 <_start+0x1>
 3b4:	00200293          	li	t0,2
 3b8:	fe5212e3          	bne	tp,t0,39c <test_27+0x4>
 3bc:	01900393          	li	t2,25
 3c0:	01b00193          	li	gp,27
 3c4:	18771c63          	bne	a4,t2,55c <fail>

000003c8 <test_28>:
 3c8:	00000213          	li	tp,0
 3cc:	00f00093          	li	ra,15
 3d0:	00000013          	nop
 3d4:	00000013          	nop
 3d8:	00b00113          	li	sp,11
 3dc:	00208733          	add	a4,ra,sp
 3e0:	00120213          	addi	tp,tp,1 # 1 <_start+0x1>
 3e4:	00200293          	li	t0,2
 3e8:	fe5212e3          	bne	tp,t0,3cc <test_28+0x4>
 3ec:	01a00393          	li	t2,26
 3f0:	01c00193          	li	gp,28
 3f4:	16771463          	bne	a4,t2,55c <fail>

000003f8 <test_29>:
 3f8:	00000213          	li	tp,0
 3fc:	00b00113          	li	sp,11
 400:	00d00093          	li	ra,13
 404:	00208733          	add	a4,ra,sp
 408:	00120213          	addi	tp,tp,1 # 1 <_start+0x1>
 40c:	00200293          	li	t0,2
 410:	fe5216e3          	bne	tp,t0,3fc <test_29+0x4>
 414:	01800393          	li	t2,24
 418:	01d00193          	li	gp,29
 41c:	14771063          	bne	a4,t2,55c <fail>

00000420 <test_30>:
 420:	00000213          	li	tp,0
 424:	00b00113          	li	sp,11
 428:	00e00093          	li	ra,14
 42c:	00000013          	nop
 430:	00208733          	add	a4,ra,sp
 434:	00120213          	addi	tp,tp,1 # 1 <_start+0x1>
 438:	00200293          	li	t0,2
 43c:	fe5214e3          	bne	tp,t0,424 <test_30+0x4>
 440:	01900393          	li	t2,25
 444:	01e00193          	li	gp,30
 448:	10771a63          	bne	a4,t2,55c <fail>

0000044c <test_31>:
 44c:	00000213          	li	tp,0
 450:	00b00113          	li	sp,11
 454:	00f00093          	li	ra,15
 458:	00000013          	nop
 45c:	00000013          	nop
 460:	00208733          	add	a4,ra,sp
 464:	00120213          	addi	tp,tp,1 # 1 <_start+0x1>
 468:	00200293          	li	t0,2
 46c:	fe5212e3          	bne	tp,t0,450 <test_31+0x4>
 470:	01a00393          	li	t2,26
 474:	01f00193          	li	gp,31
 478:	0e771263          	bne	a4,t2,55c <fail>

0000047c <test_32>:
 47c:	00000213          	li	tp,0
 480:	00b00113          	li	sp,11
 484:	00000013          	nop
 488:	00d00093          	li	ra,13
 48c:	00208733          	add	a4,ra,sp
 490:	00120213          	addi	tp,tp,1 # 1 <_start+0x1>
 494:	00200293          	li	t0,2
 498:	fe5214e3          	bne	tp,t0,480 <test_32+0x4>
 49c:	01800393          	li	t2,24
 4a0:	02000193          	li	gp,32
 4a4:	0a771c63          	bne	a4,t2,55c <fail>

000004a8 <test_33>:
 4a8:	00000213          	li	tp,0
 4ac:	00b00113          	li	sp,11
 4b0:	00000013          	nop
 4b4:	00e00093          	li	ra,14
 4b8:	00000013          	nop
 4bc:	00208733          	add	a4,ra,sp
 4c0:	00120213          	addi	tp,tp,1 # 1 <_start+0x1>
 4c4:	00200293          	li	t0,2
 4c8:	fe5212e3          	bne	tp,t0,4ac <test_33+0x4>
 4cc:	01900393          	li	t2,25
 4d0:	02100193          	li	gp,33
 4d4:	08771463          	bne	a4,t2,55c <fail>

000004d8 <test_34>:
 4d8:	00000213          	li	tp,0
 4dc:	00b00113          	li	sp,11
 4e0:	00000013          	nop
 4e4:	00000013          	nop
 4e8:	00f00093          	li	ra,15
 4ec:	00208733          	add	a4,ra,sp
 4f0:	00120213          	addi	tp,tp,1 # 1 <_start+0x1>
 4f4:	00200293          	li	t0,2
 4f8:	fe5212e3          	bne	tp,t0,4dc <test_34+0x4>
 4fc:	01a00393          	li	t2,26
 500:	02200193          	li	gp,34
 504:	04771c63          	bne	a4,t2,55c <fail>

00000508 <test_35>:
 508:	00f00093          	li	ra,15
 50c:	00100133          	add	sp,zero,ra
 510:	00f00393          	li	t2,15
 514:	02300193          	li	gp,35
 518:	04711263          	bne	sp,t2,55c <fail>

0000051c <test_36>:
 51c:	02000093          	li	ra,32
 520:	00008133          	add	sp,ra,zero
 524:	02000393          	li	t2,32
 528:	02400193          	li	gp,36
 52c:	02711863          	bne	sp,t2,55c <fail>

00000530 <test_37>:
 530:	000000b3          	add	ra,zero,zero
 534:	00000393          	li	t2,0
 538:	02500193          	li	gp,37
 53c:	02709063          	bne	ra,t2,55c <fail>

00000540 <test_38>:
 540:	01000093          	li	ra,16
 544:	01e00113          	li	sp,30
 548:	00208033          	add	zero,ra,sp
 54c:	00000393          	li	t2,0
 550:	02600193          	li	gp,38
 554:	00701463          	bne	zero,t2,55c <fail>
 558:	00301a63          	bne	zero,gp,56c <pass>

0000055c <fail>:
 55c:	00f00093          	li	ra,15
 560:	00f00113          	li	sp,15
 564:	00f00193          	li	gp,15

00000568 <fail_loop>:
 568:	0000006f          	j	568 <fail_loop>

0000056c <pass>:
 56c:	00100093          	li	ra,1
 570:	00200113          	li	sp,2
 574:	00300193          	li	gp,3

00000578 <pass_loop>:
 578:	0000006f          	j	578 <pass_loop>
 57c:	c0001073          	unimp
 580:	0000                	unimp
	...
